; Function Attrs: mustprogress uwtable
define hidden void @mbedtls_asn1_free_named_data_list(ptr noundef captures(none) %0) local_unnamed_addr #3 {
  %2 = load ptr, ptr %0, align 8, !tbaa !39
  %.not5 = icmp eq ptr %2, null
  br i1 %.not5, label %._crit_edge, label %mbedtls_asn1_free_named_data.exit

mbedtls_asn1_free_named_data.exit:                ; preds = %1, %mbedtls_asn1_free_named_data.exit
  %3 = phi ptr [ %10, %mbedtls_asn1_free_named_data.exit ], [ %2, %1 ]
  %4 = getelementptr inbounds nuw i8, ptr %3, i64 48
  %5 = load ptr, ptr %4, align 8, !tbaa !40
  store ptr %5, ptr %0, align 8, !tbaa !39
  %6 = getelementptr inbounds nuw i8, ptr %3, i64 16
  %7 = load ptr, ptr %6, align 8, !tbaa !35
  tail call void @free(ptr noundef %7) #11
  %8 = getelementptr inbounds nuw i8, ptr %3, i64 40
  %9 = load ptr, ptr %8, align 8, !tbaa !38
  tail call void @free(ptr noundef %9) #11
  tail call void @mbedtls_platform_zeroize(ptr noundef nonnull %3, i64 noundef 64)
  tail call void @free(ptr noundef nonnull %3) #11
  %10 = load ptr, ptr %0, align 8, !tbaa !39
  %.not = icmp eq ptr %10, null
  br i1 %.not, label %._crit_edge, label %mbedtls_asn1_free_named_data.exit, !llvm.loop !41

._crit_edge:                                      ; preds = %mbedtls_asn1_free_named_data.exit, %1
  ret void
}